target datalayout = "e-m:e-p270:32:32-p271:32:32-p272:64:64-i64:64-i128:128-f80:128-n8:16:32:64-S128"
target triple = "x86_64-pc-linux-gnu"

%struct.timespec = type { i64, i64 }

@.str.18 = private unnamed_addr constant [5 x i8] c"%s =\00", align 1
@.str.19 = private unnamed_addr constant [11 x i8] c"Total time\00", align 1
@.str.20 = private unnamed_addr constant [11 x i8] c"%9.2f sec\0A\00", align 1

; Function Attrs: inlinehint nounwind uwtable
define internal i64 @Abc_Clock() #2 {
  %1 = alloca i64, align 8
  %2 = alloca %struct.timespec, align 8
  %3 = alloca i32, align 4
  %4 = alloca i64, align 8
  call void @llvm.lifetime.start.p0(i64 16, ptr %2) #10
  %5 = call i32 @clock_gettime(i32 noundef 1, ptr noundef %2) #10
  %6 = icmp slt i32 %5, 0
  br i1 %6, label %7, label %8

7:                                                ; preds = %0
  store i64 -1, ptr %1, align 8
  store i32 1, ptr %3, align 4
  br label %19

8:                                                ; preds = %0
  call void @llvm.lifetime.start.p0(i64 8, ptr %4) #10
  %9 = getelementptr inbounds nuw %struct.timespec, ptr %2, i32 0, i32 0
  %10 = load i64, ptr %9, align 8, !tbaa !68
  %11 = mul nsw i64 %10, 1000000
  store i64 %11, ptr %4, align 8, !tbaa !67
  %12 = getelementptr inbounds nuw %struct.timespec, ptr %2, i32 0, i32 1
  %13 = load i64, ptr %12, align 8, !tbaa !70
  %14 = mul nsw i64 %13, 1000000
  %15 = sdiv i64 %14, 1000000000
  %16 = load i64, ptr %4, align 8, !tbaa !67
  %17 = add nsw i64 %16, %15
  store i64 %17, ptr %4, align 8, !tbaa !67
  %18 = load i64, ptr %4, align 8, !tbaa !67
  store i64 %18, ptr %1, align 8
  store i32 1, ptr %3, align 4
  call void @llvm.lifetime.end.p0(i64 8, ptr %4) #10
  br label %19

19:                                               ; preds = %8, %7
  call void @llvm.lifetime.end.p0(i64 16, ptr %2) #10
  %20 = load i64, ptr %1, align 8
  ret i64 %20
}

; Function Attrs: nounwind uwtable
define void @Amap_LibParseTest(ptr noundef %0) #0 {
  %2 = alloca ptr, align 8
  %3 = alloca i32, align 4
  %4 = alloca ptr, align 8
  %5 = alloca i64, align 8
  %6 = alloca i32, align 4
  store ptr %0, ptr %2, align 8, !tbaa !21
  call void @llvm.lifetime.start.p0(i64 4, ptr %3) #10
  store i32 0, ptr %3, align 4, !tbaa !10
  call void @llvm.lifetime.start.p0(i64 8, ptr %4) #10
  call void @llvm.lifetime.start.p0(i64 8, ptr %5) #10
  %7 = call i64 @Abc_Clock()
  store i64 %7, ptr %5, align 8, !tbaa !67
  %8 = load ptr, ptr %2, align 8, !tbaa !21
  %9 = load i32, ptr %3, align 4, !tbaa !10
  %10 = call ptr @Amap_LibReadFile(ptr noundef %8, i32 noundef %9)
  store ptr %10, ptr %4, align 8, !tbaa !45
  %11 = load ptr, ptr %4, align 8, !tbaa !45
  %12 = icmp eq ptr %11, null
  br i1 %12, label %13, label %14

13:                                               ; preds = %1
  store i32 1, ptr %6, align 4
  br label %25

14:                                               ; preds = %1
  %15 = load ptr, ptr %4, align 8, !tbaa !45
  %16 = load i32, ptr %3, align 4, !tbaa !10
  %17 = call i32 @Amap_LibParseEquations(ptr noundef %15, i32 noundef %16)
  %18 = load ptr, ptr %4, align 8, !tbaa !45
  call void @Amap_LibFree(ptr noundef %18)
  call void (i32, ptr, ...) @Abc_Print(i32 noundef 1, ptr noundef @.str.18, ptr noundef @.str.19)
  %19 = call i64 @Abc_Clock()
  %20 = load i64, ptr %5, align 8, !tbaa !67
  %21 = sub nsw i64 %19, %20
  %22 = sitofp i64 %21 to double
  %23 = fmul double 1.000000e+00, %22
  %24 = fdiv double %23, 1.000000e+06
  call void (i32, ptr, ...) @Abc_Print(i32 noundef 1, ptr noundef @.str.20, double noundef %24)
  store i32 0, ptr %6, align 4
  br label %25

25:                                               ; preds = %14, %13
  call void @llvm.lifetime.end.p0(i64 8, ptr %5) #10
  call void @llvm.lifetime.end.p0(i64 8, ptr %4) #10
  call void @llvm.lifetime.end.p0(i64 4, ptr %3) #10
  %26 = load i32, ptr %6, align 4
  switch i32 %26, label %28 [
    i32 0, label %27
    i32 1, label %27
  ]

27:                                               ; preds = %25, %25
  ret void

28:                                               ; preds = %25
  unreachable
}