; Function Attrs: nounwind uwtable
define void @Amap_LibParseTest(ptr noundef %0) local_unnamed_addr #0 {
  %2 = alloca %struct.timespec, align 8
  %3 = alloca %struct.timespec, align 8
  call void @llvm.lifetime.start.p0(i64 16, ptr nonnull %3) #14
  %4 = call i32 @clock_gettime(i32 noundef 1, ptr noundef nonnull %3) #14
  %5 = icmp slt i32 %4, 0
  br i1 %5, label %Abc_Clock.exit, label %6

6:                                                ; preds = %1
  %7 = load i64, ptr %3, align 8, !tbaa !54
  %.neg8 = mul i64 %7, -1000000
  %8 = getelementptr inbounds nuw i8, ptr %3, i64 8
  %9 = load i64, ptr %8, align 8, !tbaa !56
  %.neg = sdiv i64 %9, -1000
  %.neg9 = add i64 %.neg, %.neg8
  br label %Abc_Clock.exit

Abc_Clock.exit:                                   ; preds = %1, %6
  %.0.i.neg = phi i64 [ %.neg9, %6 ], [ 1, %1 ]
  call void @llvm.lifetime.end.p0(i64 16, ptr nonnull %3) #14
  %10 = call ptr @Amap_LibReadFile(ptr noundef %0, i32 noundef 0) #14
  %11 = icmp eq ptr %10, null
  br i1 %11, label %26, label %12

12:                                               ; preds = %Abc_Clock.exit
  %13 = call i32 @Amap_LibParseEquations(ptr noundef nonnull %10, i32 noundef 0)
  call void @Amap_LibFree(ptr noundef nonnull %10) #14
  call void (i32, ptr, ...) @Abc_Print(i32 poison, ptr noundef nonnull @.str.18, ptr noundef nonnull @.str.19)
  call void @llvm.lifetime.start.p0(i64 16, ptr nonnull %2) #14
  %14 = call i32 @clock_gettime(i32 noundef 1, ptr noundef nonnull %2) #14
  %15 = icmp slt i32 %14, 0
  br i1 %15, label %Abc_Clock.exit7, label %16

16:                                               ; preds = %12
  %17 = load i64, ptr %2, align 8, !tbaa !54
  %18 = mul nsw i64 %17, 1000000
  %19 = getelementptr inbounds nuw i8, ptr %2, i64 8
  %20 = load i64, ptr %19, align 8, !tbaa !56
  %21 = sdiv i64 %20, 1000
  %22 = add nsw i64 %21, %18
  br label %Abc_Clock.exit7

Abc_Clock.exit7:                                  ; preds = %12, %16
  %.0.i6 = phi i64 [ %22, %16 ], [ -1, %12 ]
  call void @llvm.lifetime.end.p0(i64 16, ptr nonnull %2) #14
  %23 = add i64 %.0.i6, %.0.i.neg
  %24 = sitofp i64 %23 to double
  %25 = fdiv double %24, 1.000000e+06
  call void (i32, ptr, ...) @Abc_Print(i32 poison, ptr noundef nonnull @.str.20, double noundef %25)
  br label %26

26:                                               ; preds = %Abc_Clock.exit, %Abc_Clock.exit7
  ret void
}